; Function Attrs: mustprogress uwtable
define noundef i32 @_ZNK7rocksdb5Block11NumRestartsEv(ptr nocapture noundef nonnull readonly align 8 dereferenceable(84) %this) local_unnamed_addr #1 align 2 {
entry:
  %num_restarts = alloca i32, align 4
  %index_type = alloca i8, align 1
  %data_ = getelementptr inbounds i8, ptr %this, i64 32
  %0 = load ptr, ptr %data_, align 8
  %size_ = getelementptr inbounds i8, ptr %this, i64 40
  %1 = load i64, ptr %size_, align 8
  %add.ptr = getelementptr inbounds i8, ptr %0, i64 %1
  %add.ptr2 = getelementptr inbounds i8, ptr %add.ptr, i64 -4
  %result.0.copyload.i = load i32, ptr %add.ptr2, align 1
  store i32 %result.0.copyload.i, ptr %num_restarts, align 4
  %cmp = icmp ugt i64 %1, 65536
  br i1 %cmp, label %return, label %if.end

if.end:                                           ; preds = %entry
  call void @_ZN7rocksdb29UnPackIndexTypeAndNumRestartsEjPNS_22BlockBasedTableOptions18DataBlockIndexTypeEPj(i32 noundef %result.0.copyload.i, ptr noundef nonnull %index_type, ptr noundef nonnull %num_restarts)
  %2 = load i32, ptr %num_restarts, align 4
  br label %return

return:                                           ; preds = %entry, %if.end
  %retval.0 = phi i32 [ %2, %if.end ], [ %result.0.copyload.i, %entry ]
  ret i32 %retval.0
}